target datalayout = "e-m:e-p270:32:32-p271:32:32-p272:64:64-i64:64-i128:128-f80:128-n8:16:32:64-S128"
target triple = "x86_64-pc-linux-gnu"

@hf_fcs_platformname_len = internal global i32 0, align 4
@hf_fcs_platformname = internal global i32 0, align 4
@hf_fcs_platformtype = internal global i32 0, align 4

; Function Attrs: nounwind uwtable
define internal void @dissect_fcfcs_gplt(ptr noundef %0, ptr noundef %1, i32 noundef %2) #0 {
  %4 = alloca ptr, align 8
  %5 = alloca ptr, align 8
  %6 = alloca i32, align 4
  %7 = alloca i32, align 4
  %8 = alloca i32, align 4
  store ptr %0, ptr %4, align 8
  store ptr %1, ptr %5, align 8
  store i32 %2, ptr %6, align 4
  store i32 16, ptr %7, align 4
  %9 = load ptr, ptr %5, align 8
  %10 = icmp ne ptr %9, null
  br i1 %10, label %11, label %40

11:                                               ; preds = %3
  %12 = load i32, ptr %6, align 4
  %13 = icmp ne i32 %12, 0
  br i1 %13, label %14, label %32

14:                                               ; preds = %11
  %15 = load ptr, ptr %4, align 8
  %16 = load i32, ptr %7, align 4
  %17 = call zeroext i8 @tvb_get_guint8(ptr noundef %15, i32 noundef %16)
  %18 = zext i8 %17 to i32
  store i32 %18, ptr %8, align 4
  %19 = load ptr, ptr %5, align 8
  %20 = load i32, ptr @hf_fcs_platformname_len, align 4
  %21 = load ptr, ptr %4, align 8
  %22 = load i32, ptr %7, align 4
  %23 = load i32, ptr %8, align 4
  %24 = call ptr @proto_tree_add_uint(ptr noundef %19, i32 noundef %20, ptr noundef %21, i32 noundef %22, i32 noundef 1, i32 noundef %23)
  %25 = load ptr, ptr %5, align 8
  %26 = load i32, ptr @hf_fcs_platformname, align 4
  %27 = load ptr, ptr %4, align 8
  %28 = load i32, ptr %7, align 4
  %29 = add i32 %28, 1
  %30 = load i32, ptr %8, align 4
  %31 = call ptr @proto_tree_add_item(ptr noundef %25, i32 noundef %26, ptr noundef %27, i32 noundef %29, i32 noundef %30, i32 noundef 0)
  br label %39

32:                                               ; preds = %11
  %33 = load ptr, ptr %5, align 8
  %34 = load i32, ptr @hf_fcs_platformtype, align 4
  %35 = load ptr, ptr %4, align 8
  %36 = load i32, ptr %7, align 4
  %37 = add i32 %36, 3
  %38 = call ptr @proto_tree_add_item(ptr noundef %33, i32 noundef %34, ptr noundef %35, i32 noundef %37, i32 noundef 1, i32 noundef 0)
  br label %39

39:                                               ; preds = %32, %14
  br label %40

40:                                               ; preds = %39, %3
  ret void
}