; Function Attrs: nounwind uwtable
define internal fastcc void @dissect_fcfcs_gplt(ptr noundef %0, ptr noundef %1, i32 noundef range(i32 0, 2) %2) unnamed_addr #0 {
  %.not = icmp eq ptr %1, null
  br i1 %.not, label %15, label %4

4:                                                ; preds = %3
  %.not14 = icmp eq i32 %2, 0
  br i1 %.not14, label %12, label %5

5:                                                ; preds = %4
  %6 = tail call zeroext i8 @tvb_get_guint8(ptr noundef %0, i32 noundef 16) #4
  %7 = zext i8 %6 to i32
  %8 = load i32, ptr @hf_fcs_platformname_len, align 4
  %9 = tail call ptr @proto_tree_add_uint(ptr noundef nonnull %1, i32 noundef %8, ptr noundef %0, i32 noundef 16, i32 noundef 1, i32 noundef %7) #4
  %10 = load i32, ptr @hf_fcs_platformname, align 4
  %11 = tail call ptr @proto_tree_add_item(ptr noundef nonnull %1, i32 noundef %10, ptr noundef %0, i32 noundef 17, i32 noundef %7, i32 noundef 0) #4
  br label %15

12:                                               ; preds = %4
  %13 = load i32, ptr @hf_fcs_platformtype, align 4
  %14 = tail call ptr @proto_tree_add_item(ptr noundef nonnull %1, i32 noundef %13, ptr noundef %0, i32 noundef 19, i32 noundef 1, i32 noundef 0) #4
  br label %15

15:                                               ; preds = %5, %12, %3
  ret void
}